; Function Attrs: mustprogress uwtable
define void @_ZN5bcd_t11handle_readE9command_t(ptr noundef nonnull align 8 dereferenceable(136) %0, ptr noundef %1) #3 align 2 personality ptr @__gxx_personality_v0 {
  %3 = getelementptr inbounds i8, ptr %0, i64 104
  %4 = load ptr, ptr %3, align 8
  %5 = getelementptr inbounds i8, ptr %0, i64 120
  %6 = load ptr, ptr %5, align 8
  %7 = getelementptr inbounds i8, ptr %6, i64 -48
  %.not.i.i = icmp eq ptr %4, %7
  br i1 %.not.i.i, label %31, label %8

8:                                                ; preds = %2
  tail call void @llvm.memcpy.p0.p0.i64(ptr noundef nonnull align 8 dereferenceable(16) %4, ptr noundef nonnull align 8 dereferenceable(16) %1, i64 16, i1 false)
  %9 = getelementptr inbounds i8, ptr %4, i64 16
  %10 = getelementptr inbounds i8, ptr %4, i64 32
  %11 = getelementptr inbounds i8, ptr %4, i64 40
  %12 = getelementptr inbounds i8, ptr %1, i64 32
  tail call void @llvm.memset.p0.i64(ptr noundef nonnull align 8 dereferenceable(32) %9, i8 0, i64 32, i1 false)
  %13 = load ptr, ptr %12, align 8
  %.not.i.i.not.i.i.i.i.i.i = icmp eq ptr %13, null
  br i1 %.not.i.i.not.i.i.i.i.i.i, label %_ZNSt16allocator_traitsISaI9command_tEE9constructIS0_JRKS0_EEEvRS1_PT_DpOT0_.exit.i.i, label %14

14:                                               ; preds = %8
  %15 = getelementptr inbounds i8, ptr %1, i64 16
  %16 = invoke noundef zeroext i1 %13(ptr noundef nonnull align 8 dereferenceable(16) %9, ptr noundef nonnull align 8 dereferenceable(16) %15, i32 noundef 2)
          to label %17 unwind label %21

17:                                               ; preds = %14
  %18 = getelementptr inbounds i8, ptr %1, i64 40
  %19 = load ptr, ptr %18, align 8
  store ptr %19, ptr %11, align 8
  %20 = load ptr, ptr %12, align 8
  store ptr %20, ptr %10, align 8
  br label %_ZNSt16allocator_traitsISaI9command_tEE9constructIS0_JRKS0_EEEvRS1_PT_DpOT0_.exit.i.i

21:                                               ; preds = %14
  %22 = landingpad { ptr, i32 }
          cleanup
  %23 = load ptr, ptr %10, align 8
  %.not.i.i.i.i.i.i.i = icmp eq ptr %23, null
  br i1 %.not.i.i.i.i.i.i.i, label %_ZNSt14_Function_baseD2Ev.exit.i.i.i.i.i.i, label %24

24:                                               ; preds = %21
  %25 = invoke noundef zeroext i1 %23(ptr noundef nonnull align 8 dereferenceable(16) %9, ptr noundef nonnull align 8 dereferenceable(16) %9, i32 noundef 3)
          to label %_ZNSt14_Function_baseD2Ev.exit.i.i.i.i.i.i unwind label %26

26:                                               ; preds = %24
  %27 = landingpad { ptr, i32 }
          catch ptr null
  %28 = extractvalue { ptr, i32 } %27, 0
  tail call void @__clang_call_terminate(ptr %28) #24
  unreachable

_ZNSt14_Function_baseD2Ev.exit.i.i.i.i.i.i:       ; preds = %24, %21
  resume { ptr, i32 } %22

_ZNSt16allocator_traitsISaI9command_tEE9constructIS0_JRKS0_EEEvRS1_PT_DpOT0_.exit.i.i: ; preds = %17, %8
  %29 = load ptr, ptr %3, align 8
  %30 = getelementptr inbounds i8, ptr %29, i64 48
  store ptr %30, ptr %3, align 8
  br label %_ZNSt5queueI9command_tSt5dequeIS0_SaIS0_EEE4pushERKS0_.exit

31:                                               ; preds = %2
  %32 = getelementptr inbounds i8, ptr %0, i64 56
  tail call void @_ZNSt5dequeI9command_tSaIS0_EE16_M_push_back_auxIJRKS0_EEEvDpOT_(ptr noundef nonnull align 8 dereferenceable(80) %32, ptr noundef nonnull align 8 dereferenceable(48) %1)
  br label %_ZNSt5queueI9command_tSt5dequeIS0_SaIS0_EEE4pushERKS0_.exit

_ZNSt5queueI9command_tSt5dequeIS0_SaIS0_EEE4pushERKS0_.exit: ; preds = %_ZNSt16allocator_traitsISaI9command_tEE9constructIS0_JRKS0_EEEvRS1_PT_DpOT0_.exit.i.i, %31
  ret void
}